target datalayout = "e-m:e-p270:32:32-p271:32:32-p272:64:64-i64:64-i128:128-f80:128-n8:16:32:64-S128"
target triple = "x86_64-pc-linux-gnu"

%struct.IDAMemRec = type { double, ptr, ptr, i32, double, double, ptr, i32, ptr, ptr, i32, ptr, ptr, i32, i32, double, double, ptr, i32, i32, i32, ptr, ptr, i32, ptr, ptr, ptr, i32, double, i32, i32, double, ptr, ptr, i32, ptr, ptr, i32, i32, i32, double, ptr, ptr, [6 x ptr], [6 x double], [6 x double], [6 x double], [6 x double], [6 x double], ptr, ptr, ptr, ptr, ptr, ptr, ptr, ptr, ptr, ptr, ptr, ptr, ptr, ptr, ptr, [6 x ptr], ptr, ptr, ptr, ptr, [6 x ptr], ptr, ptr, ptr, ptr, ptr, ptr, ptr, ptr, ptr, ptr, ptr, ptr, ptr, ptr, [6 x ptr], ptr, ptr, ptr, ptr, ptr, double, ptr, ptr, i32, i32, i32, i32, i32, i32, i32, double, double, double, i32, double, i32, i32, i32, i32, double, double, double, double, double, double, double, double, double, double, double, double, double, double, i32, i32, i32, i32, i32, i64, double, i32, i64, i64, i64, i64, i64, i64, i64, i64, i64, i64, i64, i64, i64, i64, i64, i64, i64, i64, i64, i64, i64, i64, i64, i64, ptr, ptr, ptr, i32, i32, i32, i32, i32, i32, i32, i32, i32, i32, i32, i32, i32, ptr, ptr, ptr, ptr, ptr, ptr, i32, i32, i32, i32, i32, i32, double, double, double, ptr, i32, ptr, ptr, double, double, double, ptr, ptr, ptr, double, double, i32, i32, i64, ptr, i32, i32, ptr, i32 }
%struct.IDAadjMemRec = type { double, double, i32, i32, double, ptr, i32, ptr, i32, ptr, ptr, i32, i64, ptr, i64, i32, ptr, ptr, ptr, ptr, i32, i32, i32, i32, i32, [6 x ptr], [6 x ptr], [6 x double], ptr, ptr, ptr, ptr, i64 }
%struct.IDABMemRec = type { i32, double, ptr, i32, i32, ptr, ptr, ptr, ptr, ptr, ptr, ptr, ptr, ptr, double, ptr, ptr, ptr }
%struct.IDADlsMemRecB = type { i32, ptr, ptr, ptr, ptr }

@.str = private unnamed_addr constant [8 x i8] c"IDASDLS\00", align 1
@.str.26 = private unnamed_addr constant [25 x i8] c"Bad t for interpolation.\00", align 1
@.str.29 = private unnamed_addr constant [23 x i8] c"idaDlsBandJacBSWrapper\00", align 1

; Function Attrs: nounwind uwtable
define internal i32 @idaDlsBandJacBSWrapper(i64 noundef %0, i64 noundef %1, i64 noundef %2, double noundef %3, double noundef %4, ptr noundef %5, ptr noundef %6, ptr noundef %7, ptr noundef %8, ptr noundef %9, ptr noundef %10, ptr noundef %11, ptr noundef %12) #0 {
  %14 = alloca i32, align 4
  %15 = alloca i64, align 8
  %16 = alloca i64, align 8
  %17 = alloca i64, align 8
  %18 = alloca double, align 8
  %19 = alloca double, align 8
  %20 = alloca ptr, align 8
  %21 = alloca ptr, align 8
  %22 = alloca ptr, align 8
  %23 = alloca ptr, align 8
  %24 = alloca ptr, align 8
  %25 = alloca ptr, align 8
  %26 = alloca ptr, align 8
  %27 = alloca ptr, align 8
  %28 = alloca ptr, align 8
  %29 = alloca ptr, align 8
  %30 = alloca ptr, align 8
  %31 = alloca ptr, align 8
  %32 = alloca i32, align 4
  %33 = alloca i32, align 4
  store i64 %0, ptr %15, align 8, !tbaa !31
  store i64 %1, ptr %16, align 8, !tbaa !31
  store i64 %2, ptr %17, align 8, !tbaa !31
  store double %3, ptr %18, align 8, !tbaa !39
  store double %4, ptr %19, align 8, !tbaa !39
  store ptr %5, ptr %20, align 8, !tbaa !40
  store ptr %6, ptr %21, align 8, !tbaa !40
  store ptr %7, ptr %22, align 8, !tbaa !40
  store ptr %8, ptr %23, align 8, !tbaa !41
  store ptr %9, ptr %24, align 8, !tbaa !3
  store ptr %10, ptr %25, align 8, !tbaa !40
  store ptr %11, ptr %26, align 8, !tbaa !40
  store ptr %12, ptr %27, align 8, !tbaa !40
  call void @llvm.lifetime.start.p0(i64 8, ptr %28) #6
  call void @llvm.lifetime.start.p0(i64 8, ptr %29) #6
  call void @llvm.lifetime.start.p0(i64 8, ptr %30) #6
  call void @llvm.lifetime.start.p0(i64 8, ptr %31) #6
  call void @llvm.lifetime.start.p0(i64 4, ptr %32) #6
  %34 = load ptr, ptr %24, align 8, !tbaa !3
  store ptr %34, ptr %29, align 8, !tbaa !7
  %35 = load ptr, ptr %29, align 8, !tbaa !7
  %36 = getelementptr inbounds nuw %struct.IDAMemRec, ptr %35, i32 0, i32 204
  %37 = load ptr, ptr %36, align 8, !tbaa !62
  store ptr %37, ptr %28, align 8, !tbaa !63
  %38 = load ptr, ptr %28, align 8, !tbaa !63
  %39 = getelementptr inbounds nuw %struct.IDAadjMemRec, ptr %38, i32 0, i32 7
  %40 = load ptr, ptr %39, align 8, !tbaa !81
  store ptr %40, ptr %30, align 8, !tbaa !70
  %41 = load ptr, ptr %30, align 8, !tbaa !70
  %42 = getelementptr inbounds nuw %struct.IDABMemRec, ptr %41, i32 0, i32 10
  %43 = load ptr, ptr %42, align 8, !tbaa !76
  store ptr %43, ptr %31, align 8, !tbaa !77
  %44 = load ptr, ptr %28, align 8, !tbaa !63
  %45 = getelementptr inbounds nuw %struct.IDAadjMemRec, ptr %44, i32 0, i32 24
  %46 = load i32, ptr %45, align 8, !tbaa !82
  %47 = icmp eq i32 %46, 0
  br i1 %47, label %48, label %93

48:                                               ; preds = %13
  %49 = load ptr, ptr %28, align 8, !tbaa !63
  %50 = getelementptr inbounds nuw %struct.IDAadjMemRec, ptr %49, i32 0, i32 23
  %51 = load i32, ptr %50, align 4, !tbaa !89
  %52 = icmp ne i32 %51, 0
  br i1 %52, label %53, label %72

53:                                               ; preds = %48
  %54 = load ptr, ptr %28, align 8, !tbaa !63
  %55 = getelementptr inbounds nuw %struct.IDAadjMemRec, ptr %54, i32 0, i32 17
  %56 = load ptr, ptr %55, align 8, !tbaa !83
  %57 = load ptr, ptr %29, align 8, !tbaa !7
  %58 = load double, ptr %18, align 8, !tbaa !39
  %59 = load ptr, ptr %28, align 8, !tbaa !63
  %60 = getelementptr inbounds nuw %struct.IDAadjMemRec, ptr %59, i32 0, i32 28
  %61 = load ptr, ptr %60, align 8, !tbaa !84
  %62 = load ptr, ptr %28, align 8, !tbaa !63
  %63 = getelementptr inbounds nuw %struct.IDAadjMemRec, ptr %62, i32 0, i32 29
  %64 = load ptr, ptr %63, align 8, !tbaa !85
  %65 = load ptr, ptr %28, align 8, !tbaa !63
  %66 = getelementptr inbounds nuw %struct.IDAadjMemRec, ptr %65, i32 0, i32 30
  %67 = load ptr, ptr %66, align 8, !tbaa !90
  %68 = load ptr, ptr %28, align 8, !tbaa !63
  %69 = getelementptr inbounds nuw %struct.IDAadjMemRec, ptr %68, i32 0, i32 31
  %70 = load ptr, ptr %69, align 8, !tbaa !91
  %71 = call i32 %56(ptr noundef %57, double noundef %58, ptr noundef %61, ptr noundef %64, ptr noundef %67, ptr noundef %70)
  store i32 %71, ptr %32, align 4, !tbaa !43
  br label %85

72:                                               ; preds = %48
  %73 = load ptr, ptr %28, align 8, !tbaa !63
  %74 = getelementptr inbounds nuw %struct.IDAadjMemRec, ptr %73, i32 0, i32 17
  %75 = load ptr, ptr %74, align 8, !tbaa !83
  %76 = load ptr, ptr %29, align 8, !tbaa !7
  %77 = load double, ptr %18, align 8, !tbaa !39
  %78 = load ptr, ptr %28, align 8, !tbaa !63
  %79 = getelementptr inbounds nuw %struct.IDAadjMemRec, ptr %78, i32 0, i32 28
  %80 = load ptr, ptr %79, align 8, !tbaa !84
  %81 = load ptr, ptr %28, align 8, !tbaa !63
  %82 = getelementptr inbounds nuw %struct.IDAadjMemRec, ptr %81, i32 0, i32 29
  %83 = load ptr, ptr %82, align 8, !tbaa !85
  %84 = call i32 %75(ptr noundef %76, double noundef %77, ptr noundef %80, ptr noundef %83, ptr noundef null, ptr noundef null)
  store i32 %84, ptr %32, align 4, !tbaa !43
  br label %85

85:                                               ; preds = %72, %53
  %86 = load i32, ptr %32, align 4, !tbaa !43
  %87 = icmp ne i32 %86, 0
  br i1 %87, label %88, label %92

88:                                               ; preds = %85
  %89 = load ptr, ptr %30, align 8, !tbaa !70
  %90 = getelementptr inbounds nuw %struct.IDABMemRec, ptr %89, i32 0, i32 2
  %91 = load ptr, ptr %90, align 8, !tbaa !75
  call void (ptr, i32, ptr, ptr, ptr, ...) @IDAProcessError(ptr noundef %91, i32 noundef -1, ptr noundef @.str, ptr noundef @.str.29, ptr noundef @.str.26)
  store i32 -1, ptr %14, align 4
  store i32 1, ptr %33, align 4
  br label %126

92:                                               ; preds = %85
  br label %93

93:                                               ; preds = %92, %13
  %94 = load ptr, ptr %31, align 8, !tbaa !77
  %95 = getelementptr inbounds nuw %struct.IDADlsMemRecB, ptr %94, i32 0, i32 4
  %96 = load ptr, ptr %95, align 8, !tbaa !95
  %97 = load i64, ptr %15, align 8, !tbaa !31
  %98 = load i64, ptr %16, align 8, !tbaa !31
  %99 = load i64, ptr %17, align 8, !tbaa !31
  %100 = load double, ptr %18, align 8, !tbaa !39
  %101 = load double, ptr %19, align 8, !tbaa !39
  %102 = load ptr, ptr %28, align 8, !tbaa !63
  %103 = getelementptr inbounds nuw %struct.IDAadjMemRec, ptr %102, i32 0, i32 28
  %104 = load ptr, ptr %103, align 8, !tbaa !84
  %105 = load ptr, ptr %28, align 8, !tbaa !63
  %106 = getelementptr inbounds nuw %struct.IDAadjMemRec, ptr %105, i32 0, i32 29
  %107 = load ptr, ptr %106, align 8, !tbaa !85
  %108 = load ptr, ptr %28, align 8, !tbaa !63
  %109 = getelementptr inbounds nuw %struct.IDAadjMemRec, ptr %108, i32 0, i32 30
  %110 = load ptr, ptr %109, align 8, !tbaa !90
  %111 = load ptr, ptr %28, align 8, !tbaa !63
  %112 = getelementptr inbounds nuw %struct.IDAadjMemRec, ptr %111, i32 0, i32 31
  %113 = load ptr, ptr %112, align 8, !tbaa !91
  %114 = load ptr, ptr %20, align 8, !tbaa !40
  %115 = load ptr, ptr %21, align 8, !tbaa !40
  %116 = load ptr, ptr %22, align 8, !tbaa !40
  %117 = load ptr, ptr %23, align 8, !tbaa !41
  %118 = load ptr, ptr %30, align 8, !tbaa !70
  %119 = getelementptr inbounds nuw %struct.IDABMemRec, ptr %118, i32 0, i32 9
  %120 = load ptr, ptr %119, align 8, !tbaa !86
  %121 = load ptr, ptr %25, align 8, !tbaa !40
  %122 = load ptr, ptr %26, align 8, !tbaa !40
  %123 = load ptr, ptr %27, align 8, !tbaa !40
  %124 = call i32 %96(i64 noundef %97, i64 noundef %98, i64 noundef %99, double noundef %100, double noundef %101, ptr noundef %104, ptr noundef %107, ptr noundef %110, ptr noundef %113, ptr noundef %114, ptr noundef %115, ptr noundef %116, ptr noundef %117, ptr noundef %120, ptr noundef %121, ptr noundef %122, ptr noundef %123)
  store i32 %124, ptr %32, align 4, !tbaa !43
  %125 = load i32, ptr %32, align 4, !tbaa !43
  store i32 %125, ptr %14, align 4
  store i32 1, ptr %33, align 4
  br label %126

126:                                              ; preds = %93, %88
  call void @llvm.lifetime.end.p0(i64 4, ptr %32) #6
  call void @llvm.lifetime.end.p0(i64 8, ptr %31) #6
  call void @llvm.lifetime.end.p0(i64 8, ptr %30) #6
  call void @llvm.lifetime.end.p0(i64 8, ptr %29) #6
  call void @llvm.lifetime.end.p0(i64 8, ptr %28) #6
  %127 = load i32, ptr %14, align 4
  ret i32 %127
}