; Function Attrs: nounwind uwtable
define internal i32 @idaDlsBandJacBSWrapper(i64 noundef %0, i64 noundef %1, i64 noundef %2, double noundef %3, double noundef %4, ptr noundef %5, ptr noundef %6, ptr noundef %7, ptr noundef %8, ptr noundef %9, ptr noundef %10, ptr noundef %11, ptr noundef %12) #0 {
  %14 = getelementptr inbounds nuw i8, ptr %9, i64 1816
  %15 = load ptr, ptr %14, align 8, !tbaa !51
  %16 = getelementptr inbounds nuw i8, ptr %15, i64 48
  %17 = load ptr, ptr %16, align 8, !tbaa !66
  %18 = getelementptr inbounds nuw i8, ptr %17, i64 72
  %19 = load ptr, ptr %18, align 8, !tbaa !63
  %20 = getelementptr inbounds nuw i8, ptr %15, i64 168
  %21 = load i32, ptr %20, align 8, !tbaa !67
  %22 = icmp eq i32 %21, 0
  br i1 %22, label %23, label %44

23:                                               ; preds = %13
  %24 = getelementptr inbounds nuw i8, ptr %15, i64 164
  %25 = load i32, ptr %24, align 4, !tbaa !73
  %.not = icmp eq i32 %25, 0
  %26 = getelementptr inbounds nuw i8, ptr %15, i64 128
  %27 = load ptr, ptr %26, align 8, !tbaa !68
  %28 = getelementptr inbounds nuw i8, ptr %15, i64 320
  %29 = load ptr, ptr %28, align 8, !tbaa !69
  %30 = getelementptr inbounds nuw i8, ptr %15, i64 328
  %31 = load ptr, ptr %30, align 8, !tbaa !70
  br i1 %.not, label %38, label %32

32:                                               ; preds = %23
  %33 = getelementptr inbounds nuw i8, ptr %15, i64 336
  %34 = load ptr, ptr %33, align 8, !tbaa !74
  %35 = getelementptr inbounds nuw i8, ptr %15, i64 344
  %36 = load ptr, ptr %35, align 8, !tbaa !75
  %37 = tail call i32 %27(ptr noundef nonnull %9, double noundef %3, ptr noundef %29, ptr noundef %31, ptr noundef %34, ptr noundef %36) #7
  br label %40

38:                                               ; preds = %23
  %39 = tail call i32 %27(ptr noundef nonnull %9, double noundef %3, ptr noundef %29, ptr noundef %31, ptr noundef null, ptr noundef null) #7
  br label %40

40:                                               ; preds = %38, %32
  %.0 = phi i32 [ %37, %32 ], [ %39, %38 ]
  %.not40 = icmp eq i32 %.0, 0
  br i1 %.not40, label %44, label %41

41:                                               ; preds = %40
  %42 = getelementptr inbounds nuw i8, ptr %17, i64 16
  %43 = load ptr, ptr %42, align 8, !tbaa !62
  tail call void (ptr, i32, ptr, ptr, ptr, ...) @IDAProcessError(ptr noundef %43, i32 noundef -1, ptr noundef nonnull @.str, ptr noundef nonnull @.str.29, ptr noundef nonnull @.str.26) #7
  br label %58

44:                                               ; preds = %40, %13
  %45 = getelementptr inbounds nuw i8, ptr %19, i64 32
  %46 = load ptr, ptr %45, align 8, !tbaa !77
  %47 = getelementptr inbounds nuw i8, ptr %15, i64 320
  %48 = load ptr, ptr %47, align 8, !tbaa !69
  %49 = getelementptr inbounds nuw i8, ptr %15, i64 328
  %50 = load ptr, ptr %49, align 8, !tbaa !70
  %51 = getelementptr inbounds nuw i8, ptr %15, i64 336
  %52 = load ptr, ptr %51, align 8, !tbaa !74
  %53 = getelementptr inbounds nuw i8, ptr %15, i64 344
  %54 = load ptr, ptr %53, align 8, !tbaa !75
  %55 = getelementptr inbounds nuw i8, ptr %17, i64 64
  %56 = load ptr, ptr %55, align 8, !tbaa !71
  %57 = tail call i32 %46(i64 noundef %0, i64 noundef %1, i64 noundef %2, double noundef %3, double noundef %4, ptr noundef %48, ptr noundef %50, ptr noundef %52, ptr noundef %54, ptr noundef %5, ptr noundef %6, ptr noundef %7, ptr noundef %8, ptr noundef %56, ptr noundef %10, ptr noundef %11, ptr noundef %12) #7
  br label %58

58:                                               ; preds = %44, %41
  %.039 = phi i32 [ -1, %41 ], [ %57, %44 ]
  ret i32 %.039
}